target datalayout = "e-m:e-p270:32:32-p271:32:32-p272:64:64-i64:64-i128:128-f80:128-n8:16:32:64-S128"
target triple = "x86_64-pc-linux-gnu"

%"class.LIEF::PE::CodeViewPDB" = type { %"class.LIEF::PE::CodeView", i32, %"struct.std::array", %"class.std::__cxx11::basic_string" }
%"class.LIEF::PE::CodeView" = type { %"class.LIEF::PE::Debug.base", i32 }
%"class.LIEF::PE::Debug.base" = type <{ %"class.LIEF::Object", i32, i32, i32, i16, i16, i32, i32, i32 }>
%"class.LIEF::Object" = type { ptr }
%"struct.std::array" = type { [16 x i8] }
%"class.std::__cxx11::basic_string" = type { %"struct.std::__cxx11::basic_string<char>::_Alloc_hider", i64, %union.anon.0 }
%"struct.std::__cxx11::basic_string<char>::_Alloc_hider" = type { ptr }
%union.anon.0 = type { i64, [8 x i8] }

; Function Attrs: mustprogress uwtable
define void @_ZN4LIEF2PE11CodeViewPDBC2Ev(ptr noundef nonnull align 8 dereferenceable(96) %0) unnamed_addr #3 align 2 {
  %2 = alloca ptr, align 8
  store ptr %0, ptr %2, align 8
  %3 = load ptr, ptr %2, align 8
  call void @_ZN4LIEF2PE8CodeViewC2Ev(ptr noundef nonnull align 8 dereferenceable(40) %3)
  store ptr getelementptr inbounds ({ [8 x ptr] }, ptr @_ZTVN4LIEF2PE11CodeViewPDBE, i32 0, i32 0, i32 2), ptr %3, align 8
  %4 = getelementptr inbounds %"class.LIEF::PE::CodeViewPDB", ptr %3, i32 0, i32 1
  store i32 0, ptr %4, align 8
  %5 = getelementptr inbounds %"class.LIEF::PE::CodeViewPDB", ptr %3, i32 0, i32 3
  call void @_ZNSt7__cxx1112basic_stringIcSt11char_traitsIcESaIcEEC1Ev(ptr noundef nonnull align 8 dereferenceable(32) %5) #16
  ret void
}