; Function Attrs: mustprogress uwtable
define void @_ZN4LIEF2PE11CodeViewPDBC2Ev(ptr noundef nonnull align 8 dereferenceable(96) %0) unnamed_addr #3 align 2 {
  tail call void @_ZN4LIEF2PE8CodeViewC2Ev(ptr noundef nonnull align 8 dereferenceable(40) %0)
  store ptr getelementptr inbounds ({ [8 x ptr] }, ptr @_ZTVN4LIEF2PE11CodeViewPDBE, i64 0, i32 0, i64 2), ptr %0, align 8
  %2 = getelementptr inbounds i8, ptr %0, i64 40
  store i32 0, ptr %2, align 8
  %3 = getelementptr inbounds i8, ptr %0, i64 64
  tail call void @_ZNSt7__cxx1112basic_stringIcSt11char_traitsIcESaIcEEC1Ev(ptr noundef nonnull align 8 dereferenceable(32) %3) #19
  ret void
}